; Function Attrs: nounwind uwtable
define dso_local noundef ptr @smgr_bulk_start_rel(ptr noundef captures(none) %0, i32 noundef %1) local_unnamed_addr #0 {
  %3 = getelementptr inbounds nuw i8, ptr %0, i64 16
  %4 = load ptr, ptr %3, align 8
  %5 = icmp eq ptr %4, null
  br i1 %5, label %6, label %RelationGetSmgr.exit, !prof !4

6:                                                ; preds = %2
  %7 = getelementptr inbounds nuw i8, ptr %0, i64 28
  %8 = load i32, ptr %7, align 4
  %.sroa.0.0.copyload.i = load i64, ptr %0, align 8
  %.sroa.2.0..sroa_idx.i = getelementptr inbounds nuw i8, ptr %0, i64 8
  %.sroa.2.0.copyload.i = load i32, ptr %.sroa.2.0..sroa_idx.i, align 8
  %9 = tail call ptr @smgropen(i64 %.sroa.0.0.copyload.i, i32 %.sroa.2.0.copyload.i, i32 noundef %8) #4
  store ptr %9, ptr %3, align 8
  tail call void @smgrpin(ptr noundef %9) #4
  %.pre.i = load ptr, ptr %3, align 8
  br label %RelationGetSmgr.exit

RelationGetSmgr.exit:                             ; preds = %2, %6
  %10 = phi ptr [ %.pre.i, %6 ], [ %4, %2 ]
  %11 = getelementptr inbounds nuw i8, ptr %0, i64 56
  %12 = load ptr, ptr %11, align 8
  %13 = getelementptr inbounds nuw i8, ptr %12, i64 114
  %14 = load i8, ptr %13, align 2
  %15 = icmp eq i8 %14, 112
  br i1 %15, label %16, label %27

16:                                               ; preds = %RelationGetSmgr.exit
  %17 = load i32, ptr @wal_level, align 4
  %18 = icmp sgt i32 %17, 0
  br i1 %18, label %30, label %19

19:                                               ; preds = %16
  %20 = getelementptr inbounds nuw i8, ptr %0, i64 40
  %21 = load i32, ptr %20, align 8
  %22 = icmp eq i32 %21, 0
  br i1 %22, label %23, label %27

23:                                               ; preds = %19
  %24 = getelementptr inbounds nuw i8, ptr %0, i64 48
  %25 = load i32, ptr %24, align 8
  %26 = icmp eq i32 %25, 0
  br i1 %26, label %30, label %27

27:                                               ; preds = %23, %19, %RelationGetSmgr.exit
  %28 = icmp eq i32 %1, 3
  %29 = zext i1 %28 to i8
  br label %30

30:                                               ; preds = %27, %23, %16
  %31 = phi i8 [ 1, %23 ], [ 1, %16 ], [ %29, %27 ]
  %32 = tail call ptr @palloc(i64 noundef 560) #4
  store ptr %10, ptr %32, align 8
  %33 = getelementptr inbounds nuw i8, ptr %32, i64 8
  store i32 %1, ptr %33, align 8
  %34 = getelementptr inbounds nuw i8, ptr %32, i64 12
  store i8 %31, ptr %34, align 4
  %35 = getelementptr inbounds nuw i8, ptr %32, i64 16
  store i32 0, ptr %35, align 8
  %36 = tail call i32 @smgrnblocks(ptr noundef %10, i32 noundef %1) #4
  %37 = getelementptr inbounds nuw i8, ptr %32, i64 536
  store i32 %36, ptr %37, align 8
  %38 = tail call i64 @GetRedoRecPtr() #4
  %39 = getelementptr inbounds nuw i8, ptr %32, i64 544
  store i64 %38, ptr %39, align 8
  %40 = load ptr, ptr @CurrentMemoryContext, align 8
  %41 = getelementptr inbounds nuw i8, ptr %32, i64 552
  store ptr %40, ptr %41, align 8
  ret ptr %32
}